; Function Attrs: mustprogress uwtable
define void @_ZN2mu10ParserBase15DefineInfixOprtERKNSt7__cxx1112basic_stringIcSt11char_traitsIcESaIcEEEPFddEib(ptr noundef nonnull align 8 dereferenceable(596) %0, ptr noundef nonnull align 8 dereferenceable(32) %1, ptr noundef %2, i32 noundef %3, i1 noundef zeroext %4) local_unnamed_addr #7 align 2 personality ptr @__gxx_personality_v0 {
  %6 = alloca %"class.std::__cxx11::basic_string", align 8
  %7 = alloca %"class.mu::ParserCallback", align 8
  %8 = tail call noundef i64 @_ZNKSt7__cxx1112basic_stringIcSt11char_traitsIcESaIcEE6lengthEv(ptr noundef nonnull align 8 dereferenceable(32) %1) #23
  %9 = icmp ugt i64 %8, 100
  br i1 %9, label %10, label %21

10:                                               ; preds = %5
  call void @_ZNSt7__cxx1112basic_stringIcSt11char_traitsIcESaIcEEC1Ev(ptr noundef nonnull align 8 dereferenceable(32) %6) #23
  %11 = call ptr @__cxa_allocate_exception(i64 112) #23
  %12 = getelementptr inbounds i8, ptr %0, i64 120
  %13 = load ptr, ptr %12, align 8
  %14 = invoke noundef nonnull align 8 dereferenceable(32) ptr @_ZNK2mu17ParserTokenReader7GetExprB5cxx11Ev(ptr noundef nonnull align 8 dereferenceable(400) %13)
          to label %15 unwind label %17

15:                                               ; preds = %10
  invoke void @_ZN2mu11ParserErrorC1ENS_11EErrorCodesERKNSt7__cxx1112basic_stringIcSt11char_traitsIcESaIcEEES9_i(ptr noundef nonnull align 8 dereferenceable(112) %11, i32 noundef 36, ptr noundef nonnull align 8 dereferenceable(32) %6, ptr noundef nonnull align 8 dereferenceable(32) %14, i32 noundef -1)
          to label %16 unwind label %17

16:                                               ; preds = %15
  invoke void @__cxa_throw(ptr nonnull %11, ptr nonnull @_ZTIN2mu11ParserErrorE, ptr nonnull @_ZN2mu11ParserErrorD1Ev) #32
          to label %.noexc unwind label %19

.noexc:                                           ; preds = %16
  unreachable

17:                                               ; preds = %15, %10
  %18 = landingpad { ptr, i32 }
          cleanup
  call void @__cxa_free_exception(ptr %11) #23
  br label %.body

19:                                               ; preds = %16
  %20 = landingpad { ptr, i32 }
          cleanup
  br label %.body

.body:                                            ; preds = %17, %19
  %eh.lpad-body = phi { ptr, i32 } [ %20, %19 ], [ %18, %17 ]
  call void @_ZNSt7__cxx1112basic_stringIcSt11char_traitsIcESaIcEED1Ev(ptr noundef nonnull align 8 dereferenceable(32) %6) #23
  br label %28

21:                                               ; preds = %5
  call void @_ZN2mu14ParserCallbackC1EPFddEbiNS_8ECmdCodeE(ptr noundef nonnull align 8 dereferenceable(32) %7, ptr noundef %2, i1 noundef zeroext %4, i32 noundef %3, i32 noundef 32)
  %22 = invoke noundef ptr @_ZNK2mu10ParserBase19ValidInfixOprtCharsEv(ptr noundef nonnull align 8 dereferenceable(596) %0)
          to label %23 unwind label %26

23:                                               ; preds = %21
  %24 = getelementptr inbounds i8, ptr %0, i64 224
  invoke void @_ZN2mu10ParserBase11AddCallbackERKNSt7__cxx1112basic_stringIcSt11char_traitsIcESaIcEEERKNS_14ParserCallbackERSt3mapIS6_S9_St4lessIS6_ESaISt4pairIS7_S9_EEEPKc(ptr noundef nonnull align 8 dereferenceable(596) %0, ptr noundef nonnull align 8 dereferenceable(32) %1, ptr noundef nonnull align 8 dereferenceable(32) %7, ptr noundef nonnull align 8 dereferenceable(48) %24, ptr noundef %22)
          to label %25 unwind label %26

25:                                               ; preds = %23
  call void @_ZN2mu14ParserCallbackD1Ev(ptr noundef nonnull align 8 dereferenceable(32) %7) #23
  ret void

26:                                               ; preds = %23, %21
  %27 = landingpad { ptr, i32 }
          cleanup
  call void @_ZN2mu14ParserCallbackD1Ev(ptr noundef nonnull align 8 dereferenceable(32) %7) #23
  br label %28

28:                                               ; preds = %26, %.body
  %.pn = phi { ptr, i32 } [ %27, %26 ], [ %eh.lpad-body, %.body ]
  resume { ptr, i32 } %.pn
}